target datalayout = "e-m:e-p270:32:32-p271:32:32-p272:64:64-i64:64-i128:128-f80:128-n8:16:32:64-S128"
target triple = "x86_64-pc-linux-gnu"

%"struct.cv::AKAZEOptions" = type { i32, i32, i32, i32, float, float, float, i32, float, float, i32, i32, i32, i32, float, float, i32 }
%"class.cv::ParallelLoopBody" = type { ptr }
%"class.cv::MLDB_Full_Descriptor_Invoker" = type { %"class.cv::ParallelLoopBody", ptr, ptr, ptr, ptr }

; Function Attrs: mustprogress nounwind uwtable
define hidden void @_ZNK2cv28MLDB_Full_Descriptor_Invoker23MLDB_Binary_ComparisonsEPfPhiRi(ptr noundef nonnull align 8 dereferenceable(40) %0, ptr noundef %1, ptr noundef %2, i32 noundef %3, ptr noundef nonnull align 4 dereferenceable(4) %4) #6 align 2 {
  %6 = alloca ptr, align 8
  %7 = alloca ptr, align 8
  %8 = alloca ptr, align 8
  %9 = alloca i32, align 4
  %10 = alloca ptr, align 8
  %11 = alloca i32, align 4
  %12 = alloca ptr, align 8
  %13 = alloca i32, align 4
  %14 = alloca i32, align 4
  %15 = alloca i32, align 4
  %16 = alloca i32, align 4
  %17 = alloca i32, align 4
  store ptr %0, ptr %6, align 8
  store ptr %1, ptr %7, align 8
  store ptr %2, ptr %8, align 8
  store i32 %3, ptr %9, align 4
  store ptr %4, ptr %10, align 8
  %18 = load ptr, ptr %6, align 8
  %19 = getelementptr inbounds %"class.cv::MLDB_Full_Descriptor_Invoker", ptr %18, i32 0, i32 4
  %20 = load ptr, ptr %19, align 8
  %21 = getelementptr inbounds %"struct.cv::AKAZEOptions", ptr %20, i32 0, i32 12
  %22 = load i32, ptr %21, align 4
  store i32 %22, ptr %11, align 4
  %23 = load ptr, ptr %7, align 8
  store ptr %23, ptr %12, align 8
  store i32 0, ptr %13, align 4
  br label %24

24:                                               ; preds = %48, %5
  %25 = load i32, ptr %13, align 4
  %26 = load i32, ptr %9, align 4
  %27 = load i32, ptr %11, align 4
  %28 = mul nsw i32 %26, %27
  %29 = icmp slt i32 %25, %28
  br i1 %29, label %30, label %51

30:                                               ; preds = %24
  %31 = load ptr, ptr %12, align 8
  %32 = load i32, ptr %13, align 4
  %33 = sext i32 %32 to i64
  %34 = getelementptr inbounds i32, ptr %31, i64 %33
  %35 = load i32, ptr %34, align 4
  %36 = load ptr, ptr %12, align 8
  %37 = load i32, ptr %13, align 4
  %38 = sext i32 %37 to i64
  %39 = getelementptr inbounds i32, ptr %36, i64 %38
  %40 = load i32, ptr %39, align 4
  %41 = icmp slt i32 %40, 0
  %42 = select i1 %41, i32 2147483647, i32 0
  %43 = xor i32 %35, %42
  %44 = load ptr, ptr %12, align 8
  %45 = load i32, ptr %13, align 4
  %46 = sext i32 %45 to i64
  %47 = getelementptr inbounds i32, ptr %44, i64 %46
  store i32 %43, ptr %47, align 4
  br label %48

48:                                               ; preds = %30
  %49 = load i32, ptr %13, align 4
  %50 = add nsw i32 %49, 1
  store i32 %50, ptr %13, align 4
  br label %24, !llvm.loop !56

51:                                               ; preds = %24
  store i32 0, ptr %14, align 4
  br label %52

52:                                               ; preds = %116, %51
  %53 = load i32, ptr %14, align 4
  %54 = load i32, ptr %11, align 4
  %55 = icmp slt i32 %53, %54
  br i1 %55, label %56, label %119

56:                                               ; preds = %52
  store i32 0, ptr %15, align 4
  br label %57

57:                                               ; preds = %112, %56
  %58 = load i32, ptr %15, align 4
  %59 = load i32, ptr %9, align 4
  %60 = icmp slt i32 %58, %59
  br i1 %60, label %61, label %115

61:                                               ; preds = %57
  %62 = load ptr, ptr %12, align 8
  %63 = load i32, ptr %11, align 4
  %64 = load i32, ptr %15, align 4
  %65 = mul nsw i32 %63, %64
  %66 = load i32, ptr %14, align 4
  %67 = add nsw i32 %65, %66
  %68 = sext i32 %67 to i64
  %69 = getelementptr inbounds i32, ptr %62, i64 %68
  %70 = load i32, ptr %69, align 4
  store i32 %70, ptr %16, align 4
  %71 = load i32, ptr %15, align 4
  %72 = add nsw i32 %71, 1
  store i32 %72, ptr %17, align 4
  br label %73

73:                                               ; preds = %108, %61
  %74 = load i32, ptr %17, align 4
  %75 = load i32, ptr %9, align 4
  %76 = icmp slt i32 %74, %75
  br i1 %76, label %77, label %111

77:                                               ; preds = %73
  %78 = load i32, ptr %16, align 4
  %79 = load ptr, ptr %12, align 8
  %80 = load i32, ptr %11, align 4
  %81 = load i32, ptr %17, align 4
  %82 = mul nsw i32 %80, %81
  %83 = load i32, ptr %14, align 4
  %84 = add nsw i32 %82, %83
  %85 = sext i32 %84 to i64
  %86 = getelementptr inbounds i32, ptr %79, i64 %85
  %87 = load i32, ptr %86, align 4
  %88 = icmp sgt i32 %78, %87
  br i1 %88, label %89, label %104

89:                                               ; preds = %77
  %90 = load ptr, ptr %10, align 8
  %91 = load i32, ptr %90, align 4
  %92 = and i32 %91, 7
  %93 = shl i32 1, %92
  %94 = load ptr, ptr %8, align 8
  %95 = load ptr, ptr %10, align 8
  %96 = load i32, ptr %95, align 4
  %97 = ashr i32 %96, 3
  %98 = sext i32 %97 to i64
  %99 = getelementptr inbounds i8, ptr %94, i64 %98
  %100 = load i8, ptr %99, align 1
  %101 = zext i8 %100 to i32
  %102 = or i32 %101, %93
  %103 = trunc i32 %102 to i8
  store i8 %103, ptr %99, align 1
  br label %104

104:                                              ; preds = %89, %77
  %105 = load ptr, ptr %10, align 8
  %106 = load i32, ptr %105, align 4
  %107 = add nsw i32 %106, 1
  store i32 %107, ptr %105, align 4
  br label %108

108:                                              ; preds = %104
  %109 = load i32, ptr %17, align 4
  %110 = add nsw i32 %109, 1
  store i32 %110, ptr %17, align 4
  br label %73, !llvm.loop !57

111:                                              ; preds = %73
  br label %112

112:                                              ; preds = %111
  %113 = load i32, ptr %15, align 4
  %114 = add nsw i32 %113, 1
  store i32 %114, ptr %15, align 4
  br label %57, !llvm.loop !58

115:                                              ; preds = %57
  br label %116

116:                                              ; preds = %115
  %117 = load i32, ptr %14, align 4
  %118 = add nsw i32 %117, 1
  store i32 %118, ptr %14, align 4
  br label %52, !llvm.loop !59

119:                                              ; preds = %52
  ret void
}