; Function Attrs: mustprogress nofree norecurse nosync nounwind memory(read, argmem: readwrite, inaccessiblemem: none) uwtable
define hidden void @_ZNK2cv28MLDB_Full_Descriptor_Invoker23MLDB_Binary_ComparisonsEPfPhiRi(ptr nocapture noundef nonnull readonly align 8 dereferenceable(40) %0, ptr nocapture noundef %1, ptr nocapture noundef %2, i32 noundef %3, ptr nocapture noundef nonnull align 4 dereferenceable(4) %4) local_unnamed_addr #11 align 2 {
  %6 = getelementptr inbounds i8, ptr %0, i64 32
  %7 = load ptr, ptr %6, align 8
  %8 = getelementptr inbounds i8, ptr %7, i64 48
  %9 = load i32, ptr %8, align 4
  %10 = mul nsw i32 %9, %3
  %11 = icmp sgt i32 %10, 0
  br i1 %11, label %.lr.ph.preheader, label %.preheader39

.lr.ph.preheader:                                 ; preds = %5
  %wide.trip.count = zext nneg i32 %10 to i64
  br label %.lr.ph

.preheader39:                                     ; preds = %.lr.ph, %5
  %12 = icmp sgt i32 %9, 0
  %13 = icmp sgt i32 %3, 0
  %or.cond = and i1 %12, %13
  br i1 %or.cond, label %.preheader.us.preheader, label %._crit_edge46

.preheader.us.preheader:                          ; preds = %.preheader39
  %14 = zext nneg i32 %9 to i64
  %15 = zext nneg i32 %3 to i64
  %wide.trip.count59 = zext nneg i32 %3 to i64
  br label %.preheader.us

.preheader.us:                                    ; preds = %.preheader.us.preheader, %._crit_edge.us
  %indvars.iv61 = phi i64 [ 0, %.preheader.us.preheader ], [ %indvars.iv.next62, %._crit_edge.us ]
  %invariant.gep68 = getelementptr inbounds i32, ptr %1, i64 %indvars.iv61
  %invariant.gep = getelementptr inbounds i32, ptr %1, i64 %indvars.iv61
  br label %16

16:                                               ; preds = %.preheader.us, %.loopexit.us
  %indvars.iv56 = phi i64 [ 0, %.preheader.us ], [ %indvars.iv.next57, %.loopexit.us ]
  %indvars.iv49 = phi i64 [ 1, %.preheader.us ], [ %indvars.iv.next50, %.loopexit.us ]
  %17 = mul nuw nsw i64 %indvars.iv56, %14
  %gep69 = getelementptr inbounds i32, ptr %invariant.gep68, i64 %17
  %18 = load i32, ptr %gep69, align 4
  %indvars.iv.next57 = add nuw nsw i64 %indvars.iv56, 1
  %19 = icmp ult i64 %indvars.iv.next57, %15
  br i1 %19, label %.lr.ph42.us.preheader, label %.loopexit.us

.lr.ph42.us.preheader:                            ; preds = %16
  %.pre66.pre = load i32, ptr %4, align 4
  br label %.lr.ph42.us

.lr.ph42.us:                                      ; preds = %.lr.ph42.us.preheader, %32
  %.pre66 = phi i32 [ %.pre66.pre, %.lr.ph42.us.preheader ], [ %34, %32 ]
  %indvars.iv51 = phi i64 [ %indvars.iv49, %.lr.ph42.us.preheader ], [ %indvars.iv.next52, %32 ]
  %20 = mul nuw nsw i64 %indvars.iv51, %14
  %gep = getelementptr inbounds i32, ptr %invariant.gep, i64 %20
  %21 = load i32, ptr %gep, align 4
  %22 = icmp sgt i32 %18, %21
  br i1 %22, label %23, label %32

23:                                               ; preds = %.lr.ph42.us
  %24 = and i32 %.pre66, 7
  %25 = shl nuw nsw i32 1, %24
  %26 = ashr i32 %.pre66, 3
  %27 = sext i32 %26 to i64
  %28 = getelementptr inbounds i8, ptr %2, i64 %27
  %29 = load i8, ptr %28, align 1
  %30 = trunc nuw i32 %25 to i8
  %31 = or i8 %29, %30
  store i8 %31, ptr %28, align 1
  %.pre = load i32, ptr %4, align 4
  br label %32

32:                                               ; preds = %23, %.lr.ph42.us
  %33 = phi i32 [ %.pre, %23 ], [ %.pre66, %.lr.ph42.us ]
  %34 = add nsw i32 %33, 1
  store i32 %34, ptr %4, align 4
  %indvars.iv.next52 = add nuw nsw i64 %indvars.iv51, 1
  %exitcond55.not = icmp eq i64 %indvars.iv.next52, %wide.trip.count59
  br i1 %exitcond55.not, label %.loopexit.us, label %.lr.ph42.us, !llvm.loop !99

.loopexit.us:                                     ; preds = %32, %16
  %indvars.iv.next50 = add nuw nsw i64 %indvars.iv49, 1
  %exitcond60.not = icmp eq i64 %indvars.iv.next57, %wide.trip.count59
  br i1 %exitcond60.not, label %._crit_edge.us, label %16, !llvm.loop !100

._crit_edge.us:                                   ; preds = %.loopexit.us
  %indvars.iv.next62 = add nuw nsw i64 %indvars.iv61, 1
  %exitcond65.not = icmp eq i64 %indvars.iv.next62, %14
  br i1 %exitcond65.not, label %._crit_edge46, label %.preheader.us, !llvm.loop !101

.lr.ph:                                           ; preds = %.lr.ph.preheader, %.lr.ph
  %indvars.iv = phi i64 [ 0, %.lr.ph.preheader ], [ %indvars.iv.next, %.lr.ph ]
  %35 = getelementptr inbounds i32, ptr %1, i64 %indvars.iv
  %36 = load i32, ptr %35, align 4
  %37 = icmp slt i32 %36, 0
  %38 = select i1 %37, i32 2147483647, i32 0
  %39 = xor i32 %38, %36
  store i32 %39, ptr %35, align 4
  %indvars.iv.next = add nuw nsw i64 %indvars.iv, 1
  %exitcond.not = icmp eq i64 %indvars.iv.next, %wide.trip.count
  br i1 %exitcond.not, label %.preheader39, label %.lr.ph, !llvm.loop !102

._crit_edge46:                                    ; preds = %._crit_edge.us, %.preheader39
  ret void
}